; Function Attrs: mustprogress uwtable
define hidden void @_ZN7datalog22cycle_from_permutationER7svectorIjjES2_(ptr nocapture noundef nonnull readonly align 8 dereferenceable(8) %permutation, ptr noundef nonnull align 8 dereferenceable(8) %cycle) local_unnamed_addr #3 {
entry:
  %0 = load ptr, ptr %permutation, align 8
  %cmp.i.i = icmp eq ptr %0, null
  br i1 %cmp.i.i, label %_ZN7datalog33try_remove_cycle_from_permutationER7svectorIjjES2_.exit, label %_ZNK6vectorIjLb0EjE4sizeEv.exit.i

_ZNK6vectorIjLb0EjE4sizeEv.exit.i:                ; preds = %entry
  %arrayidx.i.i = getelementptr inbounds i8, ptr %0, i64 -4
  %1 = load i32, ptr %arrayidx.i.i, align 4
  %cmp24.not.i = icmp eq i32 %1, 0
  br i1 %cmp24.not.i, label %_ZN7datalog33try_remove_cycle_from_permutationER7svectorIjjES2_.exit, label %for.body.preheader.i

for.body.preheader.i:                             ; preds = %_ZNK6vectorIjLb0EjE4sizeEv.exit.i
  %2 = zext i32 %1 to i64
  br label %for.body.i

for.body.i:                                       ; preds = %for.inc.i, %for.body.preheader.i
  %indvars.iv.i = phi i64 [ 0, %for.body.preheader.i ], [ %indvars.iv.next.i, %for.inc.i ]
  %arrayidx.i10.i = getelementptr inbounds i32, ptr %0, i64 %indvars.iv.i
  %3 = load i32, ptr %arrayidx.i10.i, align 4
  %4 = zext i32 %3 to i64
  %cmp2.i = icmp eq i64 %indvars.iv.i, %4
  br i1 %cmp2.i, label %for.inc.i, label %for.cond3.preheader.i

for.cond3.preheader.i:                            ; preds = %for.body.i
  %5 = trunc i64 %indvars.iv.i to i32
  br label %for.cond3.i

for.cond3.i:                                      ; preds = %_ZN6vectorIjLb0EjE9push_backERKj.exit.i, %for.cond3.preheader.i
  %storemerge.i = phi i32 [ %14, %_ZN6vectorIjLb0EjE9push_backERKj.exit.i ], [ %5, %for.cond3.preheader.i ]
  %6 = load ptr, ptr %cycle, align 8
  %cmp.i11.i = icmp eq ptr %6, null
  br i1 %cmp.i11.i, label %if.then.i.i, label %lor.lhs.false.i.i

lor.lhs.false.i.i:                                ; preds = %for.cond3.i
  %arrayidx.i12.i = getelementptr inbounds i8, ptr %6, i64 -4
  %7 = load i32, ptr %arrayidx.i12.i, align 4
  %arrayidx4.i.i = getelementptr inbounds i8, ptr %6, i64 -8
  %8 = load i32, ptr %arrayidx4.i.i, align 4
  %cmp5.i.i = icmp eq i32 %7, %8
  br i1 %cmp5.i.i, label %if.then.i.i, label %_ZN6vectorIjLb0EjE9push_backERKj.exit.i

if.then.i.i:                                      ; preds = %lor.lhs.false.i.i, %for.cond3.i
  tail call void @_ZN6vectorIjLb0EjE13expand_vectorEv(ptr noundef nonnull align 8 dereferenceable(8) %cycle)
  %.pre.i.i = load ptr, ptr %cycle, align 8
  %arrayidx8.phi.trans.insert.i.i = getelementptr inbounds i8, ptr %.pre.i.i, i64 -4
  %.pre1.i.i = load i32, ptr %arrayidx8.phi.trans.insert.i.i, align 4
  br label %_ZN6vectorIjLb0EjE9push_backERKj.exit.i

_ZN6vectorIjLb0EjE9push_backERKj.exit.i:          ; preds = %if.then.i.i, %lor.lhs.false.i.i
  %9 = phi i32 [ %.pre1.i.i, %if.then.i.i ], [ %7, %lor.lhs.false.i.i ]
  %10 = phi ptr [ %.pre.i.i, %if.then.i.i ], [ %6, %lor.lhs.false.i.i ]
  %idx.ext.i.i = zext i32 %9 to i64
  %add.ptr.i.i = getelementptr inbounds i32, ptr %10, i64 %idx.ext.i.i
  store i32 %storemerge.i, ptr %add.ptr.i.i, align 4
  %11 = load ptr, ptr %cycle, align 8
  %arrayidx10.i.i = getelementptr inbounds i8, ptr %11, i64 -4
  %12 = load i32, ptr %arrayidx10.i.i, align 4
  %inc.i.i = add i32 %12, 1
  store i32 %inc.i.i, ptr %arrayidx10.i.i, align 4
  %13 = load ptr, ptr %permutation, align 8
  %idxprom.i14.i = zext i32 %storemerge.i to i64
  %arrayidx.i15.i = getelementptr inbounds i32, ptr %13, i64 %idxprom.i14.i
  %14 = load i32, ptr %arrayidx.i15.i, align 4
  store i32 %storemerge.i, ptr %arrayidx.i15.i, align 4
  %cmp7.i = icmp eq i32 %14, %5
  br i1 %cmp7.i, label %_ZN7datalog33try_remove_cycle_from_permutationER7svectorIjjES2_.exit, label %for.cond3.i, !llvm.loop !34

for.inc.i:                                        ; preds = %for.body.i
  %indvars.iv.next.i = add nuw nsw i64 %indvars.iv.i, 1
  %exitcond.not.i = icmp eq i64 %indvars.iv.next.i, %2
  br i1 %exitcond.not.i, label %_ZN7datalog33try_remove_cycle_from_permutationER7svectorIjjES2_.exit, label %for.body.i, !llvm.loop !35

_ZN7datalog33try_remove_cycle_from_permutationER7svectorIjjES2_.exit: ; preds = %for.inc.i, %_ZN6vectorIjLb0EjE9push_backERKj.exit.i, %entry, %_ZNK6vectorIjLb0EjE4sizeEv.exit.i
  ret void
}